target datalayout = "e-m:e-p270:32:32-p271:32:32-p272:64:64-i64:64-i128:128-f80:128-n8:16:32:64-S128"
target triple = "x86_64-pc-linux-gnu"

%struct.PROC_HDR = type { ptr, ptr, ptr, ptr, i32, %struct.dlist_head, %struct.dlist_head, %struct.dlist_head, %struct.dlist_head, %struct.pg_atomic_uint32, %struct.pg_atomic_uint32, i32, i32, i32, i32 }
%struct.dlist_head = type { %struct.dlist_node }
%struct.dlist_node = type { ptr, ptr }
%struct.pg_atomic_uint32 = type { i32 }
%struct.PGPROC = type { %struct.dlist_node, ptr, ptr, i32, %struct.Latch, i32, i32, i32, i32, %struct.anon, i32, i32, i32, i8, i8, i8, i8, %struct.proclist_node, %struct.proclist_node, ptr, ptr, i32, i32, %struct.pg_atomic_uint64, i32, i8, i64, i32, %struct.dlist_node, [16 x %struct.dlist_head], %struct.XidCacheStatus, %struct.XidCache, i8, %struct.pg_atomic_uint32, i32, i32, i8, %struct.pg_atomic_uint32, i32, i32, i64, i64, %struct.LWLock, ptr, ptr, i8, i32, ptr, %struct.dlist_head, %struct.dlist_node }
%struct.Latch = type { i32, i32, i8, i32 }
%struct.anon = type { i32, i32 }
%struct.proclist_node = type { i32, i32 }
%struct.pg_atomic_uint64 = type { i64 }
%struct.XidCacheStatus = type { i8, i8 }
%struct.XidCache = type { [64 x i32] }
%struct.LWLock = type { i16, %struct.pg_atomic_uint32, %struct.proclist_head }
%struct.proclist_head = type { i32, i32 }

@MyProc = dso_local global ptr null, align 8
@ProcGlobal = dso_local global ptr null, align 8
@AuxiliaryProcs = internal global ptr null, align 8
@ProcStructLock = internal global ptr null, align 8
@.str.1 = private unnamed_addr constant [26 x i8] c"proc header uninitialized\00", align 1
@.str.2 = private unnamed_addr constant [7 x i8] c"proc.c\00", align 1
@.str.3 = private unnamed_addr constant [18 x i8] c"you already exist\00", align 1
@IsUnderPostmaster = external global i8, align 1
@MyProcNumber = external global i32, align 4
@MyProcPid = external global i32, align 4
@__func__.InitAuxiliaryProcess = private unnamed_addr constant [21 x i8] c"InitAuxiliaryProcess\00", align 1
@.str.6 = private unnamed_addr constant [30 x i8] c"all AuxiliaryProcs are in use\00", align 1

; Function Attrs: inlinehint nounwind uwtable
define internal void @pg_atomic_write_u64_impl(ptr noundef %0, i64 noundef %1) #3 {
  %3 = alloca ptr, align 8
  %4 = alloca i64, align 8
  store ptr %0, ptr %3, align 8
  store i64 %1, ptr %4, align 8
  %5 = load i64, ptr %4, align 8
  %6 = load ptr, ptr %3, align 8
  %7 = getelementptr inbounds nuw %struct.pg_atomic_uint64, ptr %6, i32 0, i32 0
  store volatile i64 %5, ptr %7, align 8
  ret void
}

; Function Attrs: inlinehint nounwind uwtable
define internal i64 @Int32GetDatum(i32 noundef %0) #3 {
  %2 = alloca i32, align 4
  store i32 %0, ptr %2, align 4
  %3 = load i32, ptr %2, align 4
  %4 = sext i32 %3 to i64
  ret i64 %4
}

; Function Attrs: inlinehint nounwind uwtable
define internal void @pg_atomic_write_u64(ptr noundef %0, i64 noundef %1) #3 {
  %3 = alloca ptr, align 8
  %4 = alloca i64, align 8
  store ptr %0, ptr %3, align 8
  store i64 %1, ptr %4, align 8
  %5 = load ptr, ptr %3, align 8
  %6 = load i64, ptr %4, align 8
  call void @pg_atomic_write_u64_impl(ptr noundef %5, i64 noundef %6)
  ret void
}

; Function Attrs: inlinehint nounwind uwtable
define internal void @dlist_node_init(ptr noundef %0) #3 {
  %2 = alloca ptr, align 8
  store ptr %0, ptr %2, align 8
  %3 = load ptr, ptr %2, align 8
  %4 = getelementptr inbounds nuw %struct.dlist_node, ptr %3, i32 0, i32 0
  store ptr null, ptr %4, align 8
  %5 = load ptr, ptr %2, align 8
  %6 = getelementptr inbounds nuw %struct.dlist_node, ptr %5, i32 0, i32 1
  store ptr null, ptr %6, align 8
  ret void
}

; Function Attrs: inlinehint nounwind uwtable
define internal i32 @tas(ptr noundef %0) #3 {
  %2 = alloca ptr, align 8
  %3 = alloca i8, align 1
  store ptr %0, ptr %2, align 8
  call void @llvm.lifetime.start.p0(i64 1, ptr %3) #10
  store i8 1, ptr %3, align 1
  %4 = load i8, ptr %3, align 1
  %5 = load ptr, ptr %2, align 8
  %6 = call i8 asm sideeffect "\09lock\09\09\09\0A\09xchgb\09$0,$1\09\0A", "=q,=*m,0,*m,~{memory},~{cc},~{dirflag},~{fpsr},~{flags}"(ptr elementtype(i8) %5, i8 %4, ptr elementtype(i8) %5) #10, !srcloc !17
  store i8 %6, ptr %3, align 1
  %7 = load i8, ptr %3, align 1
  %8 = zext i8 %7 to i32
  call void @llvm.lifetime.end.p0(i64 1, ptr %3) #10
  ret i32 %8
}

; Function Attrs: nounwind uwtable
define dso_local void @InitAuxiliaryProcess() #0 {
  %1 = alloca ptr, align 8
  %2 = alloca i32, align 4
  call void @llvm.lifetime.start.p0(i64 8, ptr %1) #10
  call void @llvm.lifetime.start.p0(i64 4, ptr %2) #10
  %3 = load ptr, ptr @ProcGlobal, align 8
  %4 = icmp eq ptr %3, null
  br i1 %4, label %8, label %5

5:                                                ; preds = %0
  %6 = load ptr, ptr @AuxiliaryProcs, align 8
  %7 = icmp eq ptr %6, null
  br i1 %7, label %8, label %19

8:                                                ; preds = %5, %0
  br label %9

9:                                                ; preds = %8
  br i1 true, label %10, label %12

10:                                               ; preds = %9
  %11 = call zeroext i1 @errstart_cold(i32 noundef 23, ptr noundef null) #11
  br i1 %11, label %14, label %16

12:                                               ; preds = %9
  %13 = call zeroext i1 @errstart(i32 noundef 23, ptr noundef null)
  br i1 %13, label %14, label %16

14:                                               ; preds = %12, %10
  %15 = call i32 (ptr, ...) @errmsg_internal(ptr noundef @.str.1)
  call void @errfinish(ptr noundef @.str.2, i32 noundef 576, ptr noundef @__func__.InitAuxiliaryProcess)
  br label %16

16:                                               ; preds = %14, %12, %10
  unreachable

17:                                               ; No predecessors!
  br label %18

18:                                               ; preds = %17
  br label %19

19:                                               ; preds = %18, %5
  %20 = load ptr, ptr @MyProc, align 8
  %21 = icmp ne ptr %20, null
  br i1 %21, label %22, label %33

22:                                               ; preds = %19
  br label %23

23:                                               ; preds = %22
  br i1 true, label %24, label %26

24:                                               ; preds = %23
  %25 = call zeroext i1 @errstart_cold(i32 noundef 21, ptr noundef null) #11
  br i1 %25, label %28, label %30

26:                                               ; preds = %23
  %27 = call zeroext i1 @errstart(i32 noundef 21, ptr noundef null)
  br i1 %27, label %28, label %30

28:                                               ; preds = %26, %24
  %29 = call i32 (ptr, ...) @errmsg_internal(ptr noundef @.str.3)
  call void @errfinish(ptr noundef @.str.2, i32 noundef 579, ptr noundef @__func__.InitAuxiliaryProcess)
  br label %30

30:                                               ; preds = %28, %26, %24
  unreachable

31:                                               ; No predecessors!
  br label %32

32:                                               ; preds = %31
  br label %33

33:                                               ; preds = %32, %19
  %34 = load i8, ptr @IsUnderPostmaster, align 1, !range !13, !noundef !14
  %35 = trunc i8 %34 to i1
  br i1 %35, label %36, label %37

36:                                               ; preds = %33
  call void @RegisterPostmasterChildActive()
  br label %37

37:                                               ; preds = %36, %33
  %38 = load ptr, ptr @ProcStructLock, align 8
  %39 = call i32 @tas(ptr noundef %38)
  %40 = icmp ne i32 %39, 0
  br i1 %40, label %41, label %44

41:                                               ; preds = %37
  %42 = load ptr, ptr @ProcStructLock, align 8
  %43 = call i32 @s_lock(ptr noundef %42, ptr noundef @.str.2, i32 noundef 591, ptr noundef @__func__.InitAuxiliaryProcess)
  br label %45

44:                                               ; preds = %37
  br label %45

45:                                               ; preds = %44, %41
  %46 = load ptr, ptr @ProcGlobal, align 8
  %47 = getelementptr inbounds nuw %struct.PROC_HDR, ptr %46, i32 0, i32 13
  %48 = load i32, ptr %47, align 8
  call void @set_spins_per_delay(i32 noundef %48)
  store i32 0, ptr %2, align 4
  br label %49

49:                                               ; preds = %63, %45
  %50 = load i32, ptr %2, align 4
  %51 = icmp slt i32 %50, 6
  br i1 %51, label %52, label %66

52:                                               ; preds = %49
  %53 = load ptr, ptr @AuxiliaryProcs, align 8
  %54 = load i32, ptr %2, align 4
  %55 = sext i32 %54 to i64
  %56 = getelementptr inbounds %struct.PGPROC, ptr %53, i64 %55
  store ptr %56, ptr %1, align 8
  %57 = load ptr, ptr %1, align 8
  %58 = getelementptr inbounds nuw %struct.PGPROC, ptr %57, i32 0, i32 7
  %59 = load i32, ptr %58, align 4
  %60 = icmp eq i32 %59, 0
  br i1 %60, label %61, label %62

61:                                               ; preds = %52
  br label %66

62:                                               ; preds = %52
  br label %63

63:                                               ; preds = %62
  %64 = load i32, ptr %2, align 4
  %65 = add i32 %64, 1
  store i32 %65, ptr %2, align 4
  br label %49, !llvm.loop !20

66:                                               ; preds = %61, %49
  %67 = load i32, ptr %2, align 4
  %68 = icmp sge i32 %67, 6
  br i1 %68, label %69, label %84

69:                                               ; preds = %66
  br label %70

70:                                               ; preds = %69
  call void asm sideeffect "", "~{memory},~{dirflag},~{fpsr},~{flags}"() #10, !srcloc !21
  %71 = load ptr, ptr @ProcStructLock, align 8
  store i8 0, ptr %71, align 1
  br label %72

72:                                               ; preds = %70
  br label %73

73:                                               ; preds = %72
  br label %74

74:                                               ; preds = %73
  br i1 true, label %75, label %77

75:                                               ; preds = %74
  %76 = call zeroext i1 @errstart_cold(i32 noundef 22, ptr noundef null) #11
  br i1 %76, label %79, label %81

77:                                               ; preds = %74
  %78 = call zeroext i1 @errstart(i32 noundef 22, ptr noundef null)
  br i1 %78, label %79, label %81

79:                                               ; preds = %77, %75
  %80 = call i32 (ptr, ...) @errmsg_internal(ptr noundef @.str.6)
  call void @errfinish(ptr noundef @.str.2, i32 noundef 607, ptr noundef @__func__.InitAuxiliaryProcess)
  br label %81

81:                                               ; preds = %79, %77, %75
  unreachable

82:                                               ; No predecessors!
  br label %83

83:                                               ; preds = %82
  br label %84

84:                                               ; preds = %83, %66
  %85 = load i32, ptr @MyProcPid, align 4
  %86 = load ptr, ptr %1, align 8
  %87 = getelementptr inbounds nuw %struct.PGPROC, ptr %86, i32 0, i32 7
  store volatile i32 %85, ptr %87, align 4
  br label %88

88:                                               ; preds = %84
  call void asm sideeffect "", "~{memory},~{dirflag},~{fpsr},~{flags}"() #10, !srcloc !22
  %89 = load ptr, ptr @ProcStructLock, align 8
  store i8 0, ptr %89, align 1
  br label %90

90:                                               ; preds = %88
  br label %91

91:                                               ; preds = %90
  %92 = load ptr, ptr %1, align 8
  store ptr %92, ptr @MyProc, align 8
  %93 = load ptr, ptr @MyProc, align 8
  %94 = load ptr, ptr @ProcGlobal, align 8
  %95 = getelementptr inbounds nuw %struct.PROC_HDR, ptr %94, i32 0, i32 0
  %96 = load ptr, ptr %95, align 8
  %97 = getelementptr inbounds %struct.PGPROC, ptr %96, i64 0
  %98 = ptrtoint ptr %93 to i64
  %99 = ptrtoint ptr %97 to i64
  %100 = sub i64 %98, %99
  %101 = sdiv exact i64 %100, 832
  %102 = trunc i64 %101 to i32
  store i32 %102, ptr @MyProcNumber, align 4
  %103 = load ptr, ptr @MyProc, align 8
  %104 = getelementptr inbounds nuw %struct.PGPROC, ptr %103, i32 0, i32 0
  call void @dlist_node_init(ptr noundef %104)
  %105 = load ptr, ptr @MyProc, align 8
  %106 = getelementptr inbounds nuw %struct.PGPROC, ptr %105, i32 0, i32 3
  store i32 0, ptr %106, align 8
  %107 = load ptr, ptr @MyProc, align 8
  %108 = getelementptr inbounds nuw %struct.PGPROC, ptr %107, i32 0, i32 45
  store i8 0, ptr %108, align 8
  %109 = load ptr, ptr @MyProc, align 8
  %110 = getelementptr inbounds nuw %struct.PGPROC, ptr %109, i32 0, i32 46
  store i32 0, ptr %110, align 4
  %111 = load ptr, ptr @MyProc, align 8
  %112 = getelementptr inbounds nuw %struct.PGPROC, ptr %111, i32 0, i32 5
  store i32 0, ptr %112, align 4
  %113 = load ptr, ptr @MyProc, align 8
  %114 = getelementptr inbounds nuw %struct.PGPROC, ptr %113, i32 0, i32 6
  store i32 0, ptr %114, align 8
  %115 = load ptr, ptr @MyProc, align 8
  %116 = getelementptr inbounds nuw %struct.PGPROC, ptr %115, i32 0, i32 9
  %117 = getelementptr inbounds nuw %struct.anon, ptr %116, i32 0, i32 0
  store i32 -1, ptr %117, align 4
  %118 = load ptr, ptr @MyProc, align 8
  %119 = getelementptr inbounds nuw %struct.PGPROC, ptr %118, i32 0, i32 9
  %120 = getelementptr inbounds nuw %struct.anon, ptr %119, i32 0, i32 1
  store i32 0, ptr %120, align 4
  %121 = load ptr, ptr @MyProc, align 8
  %122 = getelementptr inbounds nuw %struct.PGPROC, ptr %121, i32 0, i32 10
  store i32 0, ptr %122, align 4
  %123 = load ptr, ptr @MyProc, align 8
  %124 = getelementptr inbounds nuw %struct.PGPROC, ptr %123, i32 0, i32 11
  store i32 0, ptr %124, align 8
  %125 = load ptr, ptr @MyProc, align 8
  %126 = getelementptr inbounds nuw %struct.PGPROC, ptr %125, i32 0, i32 12
  store i32 0, ptr %126, align 4
  %127 = load ptr, ptr @MyProc, align 8
  %128 = getelementptr inbounds nuw %struct.PGPROC, ptr %127, i32 0, i32 13
  store i8 0, ptr %128, align 8
  %129 = load ptr, ptr @MyProc, align 8
  %130 = getelementptr inbounds nuw %struct.PGPROC, ptr %129, i32 0, i32 24
  store i32 0, ptr %130, align 8
  %131 = load ptr, ptr @MyProc, align 8
  %132 = getelementptr inbounds nuw %struct.PGPROC, ptr %131, i32 0, i32 25
  store i8 0, ptr %132, align 4
  %133 = load ptr, ptr @MyProc, align 8
  %134 = getelementptr inbounds nuw %struct.PGPROC, ptr %133, i32 0, i32 15
  store i8 0, ptr %134, align 2
  %135 = load ptr, ptr @MyProc, align 8
  %136 = getelementptr inbounds nuw %struct.PGPROC, ptr %135, i32 0, i32 16
  store i8 0, ptr %136, align 1
  %137 = load ptr, ptr @MyProc, align 8
  %138 = getelementptr inbounds nuw %struct.PGPROC, ptr %137, i32 0, i32 19
  store ptr null, ptr %138, align 8
  %139 = load ptr, ptr @MyProc, align 8
  %140 = getelementptr inbounds nuw %struct.PGPROC, ptr %139, i32 0, i32 20
  store ptr null, ptr %140, align 8
  %141 = load ptr, ptr @MyProc, align 8
  %142 = getelementptr inbounds nuw %struct.PGPROC, ptr %141, i32 0, i32 23
  call void @pg_atomic_write_u64(ptr noundef %142, i64 noundef 0)
  %143 = load ptr, ptr @MyProc, align 8
  %144 = getelementptr inbounds nuw %struct.PGPROC, ptr %143, i32 0, i32 4
  call void @OwnLatch(ptr noundef %144)
  call void @SwitchToSharedLatch()
  %145 = load ptr, ptr @MyProc, align 8
  %146 = getelementptr inbounds nuw %struct.PGPROC, ptr %145, i32 0, i32 35
  call void @pgstat_set_wait_event_storage(ptr noundef %146)
  %147 = load ptr, ptr @MyProc, align 8
  %148 = getelementptr inbounds nuw %struct.PGPROC, ptr %147, i32 0, i32 2
  %149 = load ptr, ptr %148, align 8
  call void @PGSemaphoreReset(ptr noundef %149)
  %150 = load i32, ptr %2, align 4
  %151 = call i64 @Int32GetDatum(i32 noundef %150)
  call void @on_shmem_exit(ptr noundef @AuxiliaryProcKill, i64 noundef %151)
  call void @InitLWLockAccess()
  call void @llvm.lifetime.end.p0(i64 4, ptr %2) #10
  call void @llvm.lifetime.end.p0(i64 8, ptr %1) #10
  ret void
}