; Function Attrs: nounwind uwtable
define dso_local void @InitAuxiliaryProcess() local_unnamed_addr #0 {
  %1 = load ptr, ptr @ProcGlobal, align 8
  %2 = icmp eq ptr %1, null
  %3 = load ptr, ptr @AuxiliaryProcs, align 8
  %4 = icmp eq ptr %3, null
  %or.cond = select i1 %2, i1 true, i1 %4
  br i1 %or.cond, label %5, label %8

5:                                                ; preds = %0
  %6 = tail call zeroext i1 @errstart_cold(i32 noundef 23, ptr noundef null) #15
  tail call void @llvm.assume(i1 %6)
  %7 = tail call i32 (ptr, ...) @errmsg_internal(ptr noundef nonnull @.str.1) #14
  tail call void @errfinish(ptr noundef nonnull @.str.2, i32 noundef 576, ptr noundef nonnull @__func__.InitAuxiliaryProcess) #14
  unreachable

8:                                                ; preds = %0
  %9 = load ptr, ptr @MyProc, align 8
  %.not = icmp eq ptr %9, null
  br i1 %.not, label %13, label %10

10:                                               ; preds = %8
  %11 = tail call zeroext i1 @errstart_cold(i32 noundef 21, ptr noundef null) #15
  tail call void @llvm.assume(i1 %11)
  %12 = tail call i32 (ptr, ...) @errmsg_internal(ptr noundef nonnull @.str.3) #14
  tail call void @errfinish(ptr noundef nonnull @.str.2, i32 noundef 579, ptr noundef nonnull @__func__.InitAuxiliaryProcess) #14
  unreachable

13:                                               ; preds = %8
  %14 = load i8, ptr @IsUnderPostmaster, align 1, !range !8, !noundef !9
  %15 = trunc nuw i8 %14 to i1
  br i1 %15, label %16, label %17

16:                                               ; preds = %13
  tail call void @RegisterPostmasterChildActive() #14
  br label %17

17:                                               ; preds = %16, %13
  %18 = load ptr, ptr @ProcStructLock, align 8
  %19 = tail call i8 asm sideeffect "\09lock\09\09\09\0A\09xchgb\09$0,$1\09\0A", "=q,=*m,0,*m,~{memory},~{cc},~{dirflag},~{fpsr},~{flags}"(ptr elementtype(i8) %18, i8 1, ptr elementtype(i8) %18) #14, !srcloc !10
  %.not9 = icmp eq i8 %19, 0
  br i1 %.not9, label %23, label %20

20:                                               ; preds = %17
  %21 = load ptr, ptr @ProcStructLock, align 8
  %22 = tail call i32 @s_lock(ptr noundef %21, ptr noundef nonnull @.str.2, i32 noundef 591, ptr noundef nonnull @__func__.InitAuxiliaryProcess) #14
  br label %23

23:                                               ; preds = %17, %20
  %24 = load ptr, ptr @ProcGlobal, align 8
  %25 = getelementptr inbounds nuw i8, ptr %24, i64 120
  %26 = load i32, ptr %25, align 8
  tail call void @set_spins_per_delay(i32 noundef %26) #14
  %27 = load ptr, ptr @AuxiliaryProcs, align 8
  br label %28

28:                                               ; preds = %23, %33
  %indvars.iv = phi i64 [ 0, %23 ], [ %indvars.iv.next, %33 ]
  %29 = getelementptr inbounds nuw %struct.PGPROC, ptr %27, i64 %indvars.iv
  %30 = getelementptr inbounds nuw i8, ptr %29, i64 60
  %31 = load i32, ptr %30, align 4
  %32 = icmp eq i32 %31, 0
  br i1 %32, label %38, label %33

33:                                               ; preds = %28
  %indvars.iv.next = add nuw nsw i64 %indvars.iv, 1
  %exitcond.not = icmp eq i64 %indvars.iv.next, 6
  br i1 %exitcond.not, label %34, label %28, !llvm.loop !15

34:                                               ; preds = %33
  tail call void asm sideeffect "", "~{memory},~{dirflag},~{fpsr},~{flags}"() #14, !srcloc !16
  %35 = load ptr, ptr @ProcStructLock, align 8
  store i8 0, ptr %35, align 1
  %36 = tail call zeroext i1 @errstart_cold(i32 noundef 22, ptr noundef null) #15
  tail call void @llvm.assume(i1 %36)
  %37 = tail call i32 (ptr, ...) @errmsg_internal(ptr noundef nonnull @.str.6) #14
  tail call void @errfinish(ptr noundef nonnull @.str.2, i32 noundef 607, ptr noundef nonnull @__func__.InitAuxiliaryProcess) #14
  unreachable

38:                                               ; preds = %28
  %39 = getelementptr inbounds nuw i8, ptr %29, i64 60
  %40 = load i32, ptr @MyProcPid, align 4
  store volatile i32 %40, ptr %39, align 4
  tail call void asm sideeffect "", "~{memory},~{dirflag},~{fpsr},~{flags}"() #14, !srcloc !17
  %41 = load ptr, ptr @ProcStructLock, align 8
  store i8 0, ptr %41, align 1
  store ptr %29, ptr @MyProc, align 8
  %42 = load ptr, ptr @ProcGlobal, align 8
  %43 = load ptr, ptr %42, align 8
  %44 = ptrtoint ptr %29 to i64
  %45 = ptrtoint ptr %43 to i64
  %46 = sub i64 %44, %45
  %47 = sdiv exact i64 %46, 832
  %48 = trunc i64 %47 to i32
  store i32 %48, ptr @MyProcNumber, align 4
  tail call void @llvm.memset.p0.i64(ptr noundef nonnull align 8 dereferenceable(16) %29, i8 0, i64 16, i1 false)
  %49 = getelementptr inbounds nuw i8, ptr %29, i64 32
  store i32 0, ptr %49, align 8
  %50 = getelementptr inbounds nuw i8, ptr %29, i64 784
  store i8 0, ptr %50, align 8
  %51 = getelementptr inbounds nuw i8, ptr %29, i64 788
  store i32 0, ptr %51, align 4
  %52 = getelementptr inbounds nuw i8, ptr %29, i64 52
  store i32 0, ptr %52, align 4
  %53 = getelementptr inbounds nuw i8, ptr %29, i64 56
  store i32 0, ptr %53, align 8
  %54 = getelementptr inbounds nuw i8, ptr %29, i64 68
  store i32 -1, ptr %54, align 4
  %55 = getelementptr inbounds nuw i8, ptr %29, i64 72
  %56 = getelementptr inbounds nuw i8, ptr %29, i64 144
  store i32 0, ptr %56, align 8
  %57 = getelementptr inbounds nuw i8, ptr %29, i64 148
  store i8 0, ptr %57, align 4
  %58 = getelementptr inbounds nuw i8, ptr %29, i64 90
  store i8 0, ptr %58, align 2
  %59 = getelementptr inbounds nuw i8, ptr %29, i64 91
  store i8 0, ptr %59, align 1
  %60 = getelementptr inbounds nuw i8, ptr %29, i64 112
  %61 = getelementptr inbounds nuw i8, ptr %29, i64 136
  tail call void @llvm.memset.p0.i64(ptr noundef nonnull align 4 dereferenceable(17) %55, i8 0, i64 17, i1 false)
  tail call void @llvm.memset.p0.i64(ptr noundef nonnull align 8 dereferenceable(16) %60, i8 0, i64 16, i1 false)
  store volatile i64 0, ptr %61, align 8
  %62 = getelementptr inbounds nuw i8, ptr %29, i64 36
  tail call void @OwnLatch(ptr noundef nonnull %62) #14
  tail call void @SwitchToSharedLatch() #14
  %63 = load ptr, ptr @MyProc, align 8
  %64 = getelementptr inbounds nuw i8, ptr %63, i64 712
  tail call void @pgstat_set_wait_event_storage(ptr noundef nonnull %64) #14
  %65 = load ptr, ptr @MyProc, align 8
  %66 = getelementptr inbounds nuw i8, ptr %65, i64 24
  %67 = load ptr, ptr %66, align 8
  tail call void @PGSemaphoreReset(ptr noundef %67) #14
  %68 = and i64 %indvars.iv, 4294967295
  tail call void @on_shmem_exit(ptr noundef nonnull @AuxiliaryProcKill, i64 noundef %68) #14
  tail call void @InitLWLockAccess() #14
  ret void
}